---
triple:          'arm64-apple-darwin'
binary-path:     '/Users/mikemikulin/Desktop/labs/2_sem/lab_08/lab_08_7/seventh'
relocations:
  - { offsetInCU: 0x314F, offset: 0x314F, size: 0x8, addend: 0x0, symName: __ZNSt3__124__put_character_sequenceB8ue170006IcNS_11char_traitsIcEEEERNS_13basic_ostreamIT_T0_EES7_PKS4_m, symObjAddr: 0x8F4, symBinAddr: 0x1000021D4, symSize: 0x1EC }
  - { offsetInCU: 0x638C, offset: 0x638C, size: 0x8, addend: 0x0, symName: __ZNSt3__1neB8ue170006ERKNS_15__list_iteratorI5PointPvEES5_, symObjAddr: 0x14C, symBinAddr: 0x100001A2C, symSize: 0x34 }
  - { offsetInCU: 0x63C9, offset: 0x63C9, size: 0x8, addend: 0x0, symName: __ZNSt3__1lsB8ue170006INS_11char_traitsIcEEEERNS_13basic_ostreamIcT_EES6_c, symObjAddr: 0x6D0, symBinAddr: 0x100001FB0, symSize: 0x34 }
  - { offsetInCU: 0x640F, offset: 0x640F, size: 0x8, addend: 0x0, symName: __ZNSt3__1lsB8ue170006INS_11char_traitsIcEEEERNS_13basic_ostreamIcT_EES6_PKc, symObjAddr: 0x8AC, symBinAddr: 0x10000218C, symSize: 0x48 }
  - { offsetInCU: 0x6455, offset: 0x6455, size: 0x8, addend: 0x0, symName: __ZNSt3__116__pad_and_outputB8ue170006IcNS_11char_traitsIcEEEENS_19ostreambuf_iteratorIT_T0_EES6_PKS4_S8_S8_RNS_8ios_baseES4_, symObjAddr: 0xB30, symBinAddr: 0x100002410, symSize: 0x240 }
  - { offsetInCU: 0x6524, offset: 0x6524, size: 0x8, addend: 0x0, symName: __ZNSt3__112__to_addressB8ue170006IKcEEPT_S3_, symObjAddr: 0x10A4, symBinAddr: 0x100002984, symSize: 0x14 }
  - { offsetInCU: 0x658C, offset: 0x658C, size: 0x8, addend: 0x0, symName: __ZNSt3__19use_facetB8ue170006INS_5ctypeIcEEEERKT_RKNS_6localeE, symObjAddr: 0x1324, symBinAddr: 0x100002C04, symSize: 0x2C }
  - { offsetInCU: 0x6A59, offset: 0x6A59, size: 0x8, addend: 0x0, symName: __ZNSt3__118__constexpr_strlenB8ue170006EPKc, symObjAddr: 0x13BC, symBinAddr: 0x100002C9C, symSize: 0x24 }
  - { offsetInCU: 0x6AB8, offset: 0x6AB8, size: 0x8, addend: 0x0, symName: __ZNSt3__119__libcpp_deallocateB8ue170006EPvmm, symObjAddr: 0x17E4, symBinAddr: 0x1000030C4, symSize: 0x30 }
  - { offsetInCU: 0x6B00, offset: 0x6B00, size: 0x8, addend: 0x0, symName: __ZNSt3__127__do_deallocate_handle_sizeB8ue170006IJEEEvPvmDpT_, symObjAddr: 0x1814, symBinAddr: 0x1000030F4, symSize: 0x28 }
  - { offsetInCU: 0x6B3E, offset: 0x6B3E, size: 0x8, addend: 0x0, symName: __ZNSt3__124__libcpp_operator_deleteB8ue170006IJPvEEEvDpT_, symObjAddr: 0x183C, symBinAddr: 0x10000311C, symSize: 0x24 }
  - { offsetInCU: 0x6B73, offset: 0x6B73, size: 0x8, addend: 0x0, symName: __ZNSt3__1eqB8ue170006ERKNS_15__list_iteratorI5PointPvEES5_, symObjAddr: 0x1930, symBinAddr: 0x100003210, symSize: 0x30 }
  - { offsetInCU: 0x6BCE, offset: 0x6BCE, size: 0x8, addend: 0x0, symName: __ZNSt3__117__libcpp_allocateB8ue170006Emm, symObjAddr: 0x1EBC, symBinAddr: 0x10000379C, symSize: 0x28 }
  - { offsetInCU: 0x6C0B, offset: 0x6C0B, size: 0x8, addend: 0x0, symName: __ZNSt3__121__libcpp_operator_newB8ue170006IJmEEEPvDpT_, symObjAddr: 0x1EF8, symBinAddr: 0x1000037D8, symSize: 0x24 }
  - { offsetInCU: 0x6CE7, offset: 0x6CE7, size: 0x8, addend: 0x0, symName: __ZSt28__throw_bad_array_new_lengthB8ue170006v, symObjAddr: 0x1E88, symBinAddr: 0x100003768, symSize: 0x34 }
  - { offsetInCU: 0x6FD0, offset: 0x6FD0, size: 0x8, addend: 0x0, symName: __Z3powB8ue170006IdiENSt3__19enable_ifIXaasr3std13is_arithmeticIT_EE5valuesr3std13is_arithmeticIT0_EE5valueENS0_9__promoteIS2_S3_vEEE4type4typeES2_S3_, symObjAddr: 0x7E0, symBinAddr: 0x1000020C0, symSize: 0x38 }
  - { offsetInCU: 0x950F, offset: 0x950F, size: 0x8, addend: 0x0, symName: __Z4sortRNSt3__14listI5PointNS_9allocatorIS1_EEEE, symObjAddr: 0x0, symBinAddr: 0x1000018E0, symSize: 0xF4 }
  - { offsetInCU: 0x957D, offset: 0x957D, size: 0x8, addend: 0x0, symName: __ZNSt3__115__list_iteratorI5PointPvEC1B8ue170006Ev, symObjAddr: 0xF4, symBinAddr: 0x1000019D4, symSize: 0x2C }
  - { offsetInCU: 0x968B, offset: 0x968B, size: 0x8, addend: 0x0, symName: __ZNSt3__14listI5PointNS_9allocatorIS1_EEE5beginB8ue170006Ev, symObjAddr: 0x120, symBinAddr: 0x100001A00, symSize: 0x2C }
  - { offsetInCU: 0x96B0, offset: 0x96B0, size: 0x8, addend: 0x0, symName: __ZNSt3__14listI5PointNS_9allocatorIS1_EEE3endB8ue170006Ev, symObjAddr: 0x180, symBinAddr: 0x100001A60, symSize: 0x2C }
  - { offsetInCU: 0x96D5, offset: 0x96D5, size: 0x8, addend: 0x0, symName: __ZNKSt3__115__list_iteratorI5PointPvEdeB8ue170006Ev, symObjAddr: 0x1AC, symBinAddr: 0x100001A8C, symSize: 0x2C }
  - { offsetInCU: 0x96FA, offset: 0x96FA, size: 0x8, addend: 0x0, symName: __ZN5PointgtERKS_, symObjAddr: 0x1D8, symBinAddr: 0x100001AB8, symSize: 0xD0 }
  - { offsetInCU: 0x972D, offset: 0x972D, size: 0x8, addend: 0x0, symName: __ZNSt3__115__list_iteratorI5PointPvEppB8ue170006Ei, symObjAddr: 0x2A8, symBinAddr: 0x100001B88, symSize: 0x34 }
  - { offsetInCU: 0x976C, offset: 0x976C, size: 0x8, addend: 0x0, symName: __Z7fifth_bv, symObjAddr: 0x2DC, symBinAddr: 0x100001BBC, symSize: 0x1FC }
  - { offsetInCU: 0x9794, offset: 0x9794, size: 0x8, addend: 0x0, symName: __ZNSt3__14listI5PointNS_9allocatorIS1_EEEC1B8ue170006Ev, symObjAddr: 0x4D8, symBinAddr: 0x100001DB8, symSize: 0x2C }
  - { offsetInCU: 0x97BD, offset: 0x97BD, size: 0x8, addend: 0x0, symName: __ZNSt3__14listI5PointNS_9allocatorIS1_EEE9push_backEOS1_, symObjAddr: 0x504, symBinAddr: 0x100001DE4, symSize: 0xF4 }
  - { offsetInCU: 0x9810, offset: 0x9810, size: 0x8, addend: 0x0, symName: __ZN5PointC1Edd, symObjAddr: 0x5F8, symBinAddr: 0x100001ED8, symSize: 0x3C }
  - { offsetInCU: 0x9854, offset: 0x9854, size: 0x8, addend: 0x0, symName: __ZlsRNSt3__113basic_ostreamIcNS_11char_traitsIcEEEERNS_4listI5PointNS_9allocatorIS6_EEEE, symObjAddr: 0x634, symBinAddr: 0x100001F14, symSize: 0x9C }
  - { offsetInCU: 0x989C, offset: 0x989C, size: 0x8, addend: 0x0, symName: __Z4moveI5PointEvRNSt3__14listIT_NS1_9allocatorIS3_EEEE, symObjAddr: 0x704, symBinAddr: 0x100001FE4, symSize: 0x98 }
  - { offsetInCU: 0x98F8, offset: 0x98F8, size: 0x8, addend: 0x0, symName: __ZNSt3__14listI5PointNS_9allocatorIS1_EEED1Ev, symObjAddr: 0x79C, symBinAddr: 0x10000207C, symSize: 0x2C }
  - { offsetInCU: 0x9924, offset: 0x9924, size: 0x8, addend: 0x0, symName: _main, symObjAddr: 0x7C8, symBinAddr: 0x1000020A8, symSize: 0x18 }
  - { offsetInCU: 0x993E, offset: 0x993E, size: 0x8, addend: 0x0, symName: __ZN5PointC2Edd, symObjAddr: 0x818, symBinAddr: 0x1000020F8, symSize: 0x2C }
  - { offsetInCU: 0x9982, offset: 0x9982, size: 0x8, addend: 0x0, symName: __ZlsRNSt3__113basic_ostreamIcNS_11char_traitsIcEEEERK5Point, symObjAddr: 0x844, symBinAddr: 0x100002124, symSize: 0x68 }
  - { offsetInCU: 0x99BD, offset: 0x99BD, size: 0x8, addend: 0x0, symName: __ZNSt3__111char_traitsIcE6lengthB8ue170006EPKc, symObjAddr: 0xAE0, symBinAddr: 0x1000023C0, symSize: 0x34 }
  - { offsetInCU: 0x99FE, offset: 0x99FE, size: 0x8, addend: 0x0, symName: __ZNKSt3__113basic_ostreamIcNS_11char_traitsIcEEE6sentrycvbB8ue170006Ev, symObjAddr: 0xB14, symBinAddr: 0x1000023F4, symSize: 0x1C }
  - { offsetInCU: 0x9A22, offset: 0x9A22, size: 0x8, addend: 0x0, symName: __ZNSt3__119ostreambuf_iteratorIcNS_11char_traitsIcEEEC1B8ue170006ERNS_13basic_ostreamIcS2_EE, symObjAddr: 0xD70, symBinAddr: 0x100002650, symSize: 0x34 }
  - { offsetInCU: 0x9A59, offset: 0x9A59, size: 0x8, addend: 0x0, symName: __ZNKSt3__18ios_base5flagsB8ue170006Ev, symObjAddr: 0xDA4, symBinAddr: 0x100002684, symSize: 0x18 }
  - { offsetInCU: 0x9A80, offset: 0x9A80, size: 0x8, addend: 0x0, symName: __ZNKSt3__19basic_iosIcNS_11char_traitsIcEEE4fillB8ue170006Ev, symObjAddr: 0xDBC, symBinAddr: 0x10000269C, symSize: 0x64 }
  - { offsetInCU: 0x9AA7, offset: 0x9AA7, size: 0x8, addend: 0x0, symName: __ZNKSt3__119ostreambuf_iteratorIcNS_11char_traitsIcEEE6failedB8ue170006Ev, symObjAddr: 0xE20, symBinAddr: 0x100002700, symSize: 0x24 }
  - { offsetInCU: 0x9ACC, offset: 0x9ACC, size: 0x8, addend: 0x0, symName: __ZNSt3__19basic_iosIcNS_11char_traitsIcEEE8setstateB8ue170006Ej, symObjAddr: 0xE44, symBinAddr: 0x100002724, symSize: 0x2C }
  - { offsetInCU: 0x9B00, offset: 0x9B00, size: 0x8, addend: 0x0, symName: __ZNKSt3__18ios_base5widthB8ue170006Ev, symObjAddr: 0xE7C, symBinAddr: 0x10000275C, symSize: 0x18 }
  - { offsetInCU: 0x9B27, offset: 0x9B27, size: 0x8, addend: 0x0, symName: __ZNSt3__115basic_streambufIcNS_11char_traitsIcEEE5sputnB8ue170006EPKcl, symObjAddr: 0xE94, symBinAddr: 0x100002774, symSize: 0x3C }
  - { offsetInCU: 0x9B67, offset: 0x9B67, size: 0x8, addend: 0x0, symName: __ZNSt3__112basic_stringIcNS_11char_traitsIcEENS_9allocatorIcEEEC1B8ue170006Emc, symObjAddr: 0xED0, symBinAddr: 0x1000027B0, symSize: 0x3C }
  - { offsetInCU: 0x9BAE, offset: 0x9BAE, size: 0x8, addend: 0x0, symName: __ZNKSt3__112basic_stringIcNS_11char_traitsIcEENS_9allocatorIcEEE4dataB8ue170006Ev, symObjAddr: 0xF0C, symBinAddr: 0x1000027EC, symSize: 0x28 }
  - { offsetInCU: 0x9BD3, offset: 0x9BD3, size: 0x8, addend: 0x0, symName: __ZNSt3__18ios_base5widthB8ue170006El, symObjAddr: 0xF34, symBinAddr: 0x100002814, symSize: 0x2C }
  - { offsetInCU: 0x9C17, offset: 0x9C17, size: 0x8, addend: 0x0, symName: __ZNSt3__112basic_stringIcNS_11char_traitsIcEENS_9allocatorIcEEEC2B8ue170006Emc, symObjAddr: 0xF60, symBinAddr: 0x100002840, symSize: 0x4C }
  - { offsetInCU: 0x9C62, offset: 0x9C62, size: 0x8, addend: 0x0, symName: __ZNSt3__117__compressed_pairINS_12basic_stringIcNS_11char_traitsIcEENS_9allocatorIcEEE5__repES5_EC1B8ue170006INS_18__default_init_tagESA_EEOT_OT0_, symObjAddr: 0xFAC, symBinAddr: 0x10000288C, symSize: 0x3C }
  - { offsetInCU: 0x9CB8, offset: 0x9CB8, size: 0x8, addend: 0x0, symName: __ZNSt3__117__compressed_pairINS_12basic_stringIcNS_11char_traitsIcEENS_9allocatorIcEEE5__repES5_EC2B8ue170006INS_18__default_init_tagESA_EEOT_OT0_, symObjAddr: 0xFE8, symBinAddr: 0x1000028C8, symSize: 0x3C }
  - { offsetInCU: 0x9D0F, offset: 0x9D0F, size: 0x8, addend: 0x0, symName: __ZNSt3__122__compressed_pair_elemINS_12basic_stringIcNS_11char_traitsIcEENS_9allocatorIcEEE5__repELi0ELb0EEC2B8ue170006ENS_18__default_init_tagE, symObjAddr: 0x1024, symBinAddr: 0x100002904, symSize: 0x14 }
  - { offsetInCU: 0x9D42, offset: 0x9D42, size: 0x8, addend: 0x0, symName: __ZNSt3__122__compressed_pair_elemINS_9allocatorIcEELi1ELb1EEC2B8ue170006ENS_18__default_init_tagE, symObjAddr: 0x1038, symBinAddr: 0x100002918, symSize: 0x2C }
  - { offsetInCU: 0x9D75, offset: 0x9D75, size: 0x8, addend: 0x0, symName: __ZNSt3__19allocatorIcEC2B8ue170006Ev, symObjAddr: 0x1064, symBinAddr: 0x100002944, symSize: 0x2C }
  - { offsetInCU: 0x9D9E, offset: 0x9D9E, size: 0x8, addend: 0x0, symName: __ZNSt3__116__non_trivial_ifILb1ENS_9allocatorIcEEEC2B8ue170006Ev, symObjAddr: 0x1090, symBinAddr: 0x100002970, symSize: 0x14 }
  - { offsetInCU: 0x9DC7, offset: 0x9DC7, size: 0x8, addend: 0x0, symName: __ZNKSt3__112basic_stringIcNS_11char_traitsIcEENS_9allocatorIcEEE13__get_pointerB8ue170006Ev, symObjAddr: 0x10B8, symBinAddr: 0x100002998, symSize: 0x54 }
  - { offsetInCU: 0x9DEC, offset: 0x9DEC, size: 0x8, addend: 0x0, symName: __ZNKSt3__112basic_stringIcNS_11char_traitsIcEENS_9allocatorIcEEE9__is_longB8ue170006Ev, symObjAddr: 0x110C, symBinAddr: 0x1000029EC, symSize: 0x38 }
  - { offsetInCU: 0x9E11, offset: 0x9E11, size: 0x8, addend: 0x0, symName: __ZNKSt3__112basic_stringIcNS_11char_traitsIcEENS_9allocatorIcEEE18__get_long_pointerB8ue170006Ev, symObjAddr: 0x1144, symBinAddr: 0x100002A24, symSize: 0x28 }
  - { offsetInCU: 0x9E36, offset: 0x9E36, size: 0x8, addend: 0x0, symName: __ZNKSt3__112basic_stringIcNS_11char_traitsIcEENS_9allocatorIcEEE19__get_short_pointerB8ue170006Ev, symObjAddr: 0x116C, symBinAddr: 0x100002A4C, symSize: 0x28 }
  - { offsetInCU: 0x9E5B, offset: 0x9E5B, size: 0x8, addend: 0x0, symName: __ZNKSt3__117__compressed_pairINS_12basic_stringIcNS_11char_traitsIcEENS_9allocatorIcEEE5__repES5_E5firstB8ue170006Ev, symObjAddr: 0x1194, symBinAddr: 0x100002A74, symSize: 0x24 }
  - { offsetInCU: 0x9E80, offset: 0x9E80, size: 0x8, addend: 0x0, symName: __ZNKSt3__122__compressed_pair_elemINS_12basic_stringIcNS_11char_traitsIcEENS_9allocatorIcEEE5__repELi0ELb0EE5__getB8ue170006Ev, symObjAddr: 0x11B8, symBinAddr: 0x100002A98, symSize: 0x14 }
  - { offsetInCU: 0x9EA5, offset: 0x9EA5, size: 0x8, addend: 0x0, symName: __ZNSt3__114pointer_traitsIPKcE10pointer_toB8ue170006ERS1_, symObjAddr: 0x11CC, symBinAddr: 0x100002AAC, symSize: 0x14 }
  - { offsetInCU: 0x9EC7, offset: 0x9EC7, size: 0x8, addend: 0x0, symName: __ZNSt3__119ostreambuf_iteratorIcNS_11char_traitsIcEEEC2B8ue170006ERNS_13basic_ostreamIcS2_EE, symObjAddr: 0x11E0, symBinAddr: 0x100002AC0, symSize: 0x54 }
  - { offsetInCU: 0x9EFE, offset: 0x9EFE, size: 0x8, addend: 0x0, symName: __ZNKSt3__19basic_iosIcNS_11char_traitsIcEEE5rdbufB8ue170006Ev, symObjAddr: 0x1234, symBinAddr: 0x100002B14, symSize: 0x24 }
  - { offsetInCU: 0x9F25, offset: 0x9F25, size: 0x8, addend: 0x0, symName: __ZNKSt3__18ios_base5rdbufB8ue170006Ev, symObjAddr: 0x1258, symBinAddr: 0x100002B38, symSize: 0x18 }
  - { offsetInCU: 0x9F4A, offset: 0x9F4A, size: 0x8, addend: 0x0, symName: __ZNSt3__111char_traitsIcE11eq_int_typeB8ue170006Eii, symObjAddr: 0x1270, symBinAddr: 0x100002B50, symSize: 0x28 }
  - { offsetInCU: 0x9F7D, offset: 0x9F7D, size: 0x8, addend: 0x0, symName: __ZNSt3__111char_traitsIcE3eofB8ue170006Ev, symObjAddr: 0x1298, symBinAddr: 0x100002B78, symSize: 0x8 }
  - { offsetInCU: 0x9F91, offset: 0x9F91, size: 0x8, addend: 0x0, symName: __ZNKSt3__19basic_iosIcNS_11char_traitsIcEEE5widenB8ue170006Ec, symObjAddr: 0x12A0, symBinAddr: 0x100002B80, symSize: 0x84 }
  - { offsetInCU: 0x9FFE, offset: 0x9FFE, size: 0x8, addend: 0x0, symName: __ZNKSt3__15ctypeIcE5widenB8ue170006Ec, symObjAddr: 0x1350, symBinAddr: 0x100002C30, symSize: 0x38 }
  - { offsetInCU: 0xA032, offset: 0xA032, size: 0x8, addend: 0x0, symName: __ZNSt3__18ios_base8setstateB8ue170006Ej, symObjAddr: 0x1388, symBinAddr: 0x100002C68, symSize: 0x34 }
  - { offsetInCU: 0xA068, offset: 0xA068, size: 0x8, addend: 0x0, symName: __ZNSt3__14listI5PointNS_9allocatorIS1_EEED2Ev, symObjAddr: 0x13E0, symBinAddr: 0x100002CC0, symSize: 0x2C }
  - { offsetInCU: 0xA094, offset: 0xA094, size: 0x8, addend: 0x0, symName: __ZNSt3__110__list_impI5PointNS_9allocatorIS1_EEED2Ev, symObjAddr: 0x140C, symBinAddr: 0x100002CEC, symSize: 0x2C }
  - { offsetInCU: 0xA0BF, offset: 0xA0BF, size: 0x8, addend: 0x0, symName: __ZNSt3__110__list_impI5PointNS_9allocatorIS1_EEE5clearEv, symObjAddr: 0x1438, symBinAddr: 0x100002D18, symSize: 0xE0 }
  - { offsetInCU: 0xA12E, offset: 0xA12E, size: 0x8, addend: 0x0, symName: __ZNKSt3__110__list_impI5PointNS_9allocatorIS1_EEE5emptyB8ue170006Ev, symObjAddr: 0x1518, symBinAddr: 0x100002DF8, symSize: 0x34 }
  - { offsetInCU: 0xA153, offset: 0xA153, size: 0x8, addend: 0x0, symName: __ZNSt3__110__list_impI5PointNS_9allocatorIS1_EEE12__node_allocB8ue170006Ev, symObjAddr: 0x154C, symBinAddr: 0x100002E2C, symSize: 0x28 }
  - { offsetInCU: 0xA178, offset: 0xA178, size: 0x8, addend: 0x0, symName: __ZNKSt3__110__list_impI5PointNS_9allocatorIS1_EEE13__end_as_linkB8ue170006Ev, symObjAddr: 0x1574, symBinAddr: 0x100002E54, symSize: 0x44 }
  - { offsetInCU: 0xA19D, offset: 0xA19D, size: 0x8, addend: 0x0, symName: __ZNSt3__110__list_impI5PointNS_9allocatorIS1_EEE14__unlink_nodesEPNS_16__list_node_baseIS1_PvEES8_, symObjAddr: 0x15B8, symBinAddr: 0x100002E98, symSize: 0x3C }
  - { offsetInCU: 0xA1D2, offset: 0xA1D2, size: 0x8, addend: 0x0, symName: __ZNSt3__110__list_impI5PointNS_9allocatorIS1_EEE4__szB8ue170006Ev, symObjAddr: 0x15F4, symBinAddr: 0x100002ED4, symSize: 0x28 }
  - { offsetInCU: 0xA1F7, offset: 0xA1F7, size: 0x8, addend: 0x0, symName: __ZNSt3__116__list_node_baseI5PointPvE9__as_nodeB8ue170006Ev, symObjAddr: 0x161C, symBinAddr: 0x100002EFC, symSize: 0x24 }
  - { offsetInCU: 0xA21C, offset: 0xA21C, size: 0x8, addend: 0x0, symName: __ZNSt3__116allocator_traitsINS_9allocatorINS_11__list_nodeI5PointPvEEEEE7destroyB8ue170006IS3_vvEEvRS6_PT_, symObjAddr: 0x1640, symBinAddr: 0x100002F20, symSize: 0x14 }
  - { offsetInCU: 0xA257, offset: 0xA257, size: 0x8, addend: 0x0, symName: __ZNSt3__116allocator_traitsINS_9allocatorINS_11__list_nodeI5PointPvEEEEE10deallocateB8ue170006ERS6_PS5_m, symObjAddr: 0x1654, symBinAddr: 0x100002F34, symSize: 0x34 }
  - { offsetInCU: 0xA299, offset: 0xA299, size: 0x8, addend: 0x0, symName: __ZNKSt3__110__list_impI5PointNS_9allocatorIS1_EEE4__szB8ue170006Ev, symObjAddr: 0x1688, symBinAddr: 0x100002F68, symSize: 0x28 }
  - { offsetInCU: 0xA2BE, offset: 0xA2BE, size: 0x8, addend: 0x0, symName: __ZNKSt3__117__compressed_pairImNS_9allocatorINS_11__list_nodeI5PointPvEEEEE5firstB8ue170006Ev, symObjAddr: 0x16B0, symBinAddr: 0x100002F90, symSize: 0x24 }
  - { offsetInCU: 0xA2E3, offset: 0xA2E3, size: 0x8, addend: 0x0, symName: __ZNKSt3__122__compressed_pair_elemImLi0ELb0EE5__getB8ue170006Ev, symObjAddr: 0x16D4, symBinAddr: 0x100002FB4, symSize: 0x14 }
  - { offsetInCU: 0xA308, offset: 0xA308, size: 0x8, addend: 0x0, symName: __ZNSt3__117__compressed_pairImNS_9allocatorINS_11__list_nodeI5PointPvEEEEE6secondB8ue170006Ev, symObjAddr: 0x16E8, symBinAddr: 0x100002FC8, symSize: 0x24 }
  - { offsetInCU: 0xA32D, offset: 0xA32D, size: 0x8, addend: 0x0, symName: __ZNSt3__122__compressed_pair_elemINS_9allocatorINS_11__list_nodeI5PointPvEEEELi1ELb1EE5__getB8ue170006Ev, symObjAddr: 0x170C, symBinAddr: 0x100002FEC, symSize: 0x14 }
  - { offsetInCU: 0xA352, offset: 0xA352, size: 0x8, addend: 0x0, symName: __ZNSt3__126__list_node_pointer_traitsI5PointPvE26__unsafe_link_pointer_castB8ue170006EPNS_16__list_node_baseIS1_S2_EE, symObjAddr: 0x1720, symBinAddr: 0x100003000, symSize: 0x14 }
  - { offsetInCU: 0xA376, offset: 0xA376, size: 0x8, addend: 0x0, symName: __ZNSt3__116__list_node_baseI5PointPvE6__selfB8ue170006Ev, symObjAddr: 0x1734, symBinAddr: 0x100003014, symSize: 0x24 }
  - { offsetInCU: 0xA3A0, offset: 0xA3A0, size: 0x8, addend: 0x0, symName: __ZNSt3__114pointer_traitsIPNS_16__list_node_baseI5PointPvEEE10pointer_toB8ue170006ERS4_, symObjAddr: 0x1758, symBinAddr: 0x100003038, symSize: 0x14 }
  - { offsetInCU: 0xA3C3, offset: 0xA3C3, size: 0x8, addend: 0x0, symName: __ZNSt3__117__compressed_pairImNS_9allocatorINS_11__list_nodeI5PointPvEEEEE5firstB8ue170006Ev, symObjAddr: 0x176C, symBinAddr: 0x10000304C, symSize: 0x24 }
  - { offsetInCU: 0xA3E8, offset: 0xA3E8, size: 0x8, addend: 0x0, symName: __ZNSt3__122__compressed_pair_elemImLi0ELb0EE5__getB8ue170006Ev, symObjAddr: 0x1790, symBinAddr: 0x100003070, symSize: 0x14 }
  - { offsetInCU: 0xA40D, offset: 0xA40D, size: 0x8, addend: 0x0, symName: __ZNSt3__19allocatorINS_11__list_nodeI5PointPvEEE10deallocateB8ue170006EPS4_m, symObjAddr: 0x17A4, symBinAddr: 0x100003084, symSize: 0x40 }
  - { offsetInCU: 0xA44E, offset: 0xA44E, size: 0x8, addend: 0x0, symName: __ZNSt3__115__list_iteratorI5PointPvEC2B8ue170006Ev, symObjAddr: 0x1860, symBinAddr: 0x100003140, symSize: 0x18 }
  - { offsetInCU: 0xA477, offset: 0xA477, size: 0x8, addend: 0x0, symName: __ZNSt3__110__list_impI5PointNS_9allocatorIS1_EEE5beginB8ue170006Ev, symObjAddr: 0x1878, symBinAddr: 0x100003158, symSize: 0x30 }
  - { offsetInCU: 0xA49B, offset: 0xA49B, size: 0x8, addend: 0x0, symName: __ZNSt3__115__list_iteratorI5PointPvEC1B8ue170006EPNS_16__list_node_baseIS1_S2_EE, symObjAddr: 0x18A8, symBinAddr: 0x100003188, symSize: 0x34 }
  - { offsetInCU: 0xA4D3, offset: 0xA4D3, size: 0x8, addend: 0x0, symName: __ZNSt3__115__list_iteratorI5PointPvEC2B8ue170006EPNS_16__list_node_baseIS1_S2_EE, symObjAddr: 0x18DC, symBinAddr: 0x1000031BC, symSize: 0x20 }
  - { offsetInCU: 0xA50B, offset: 0xA50B, size: 0x8, addend: 0x0, symName: __ZNSt3__110__list_impI5PointNS_9allocatorIS1_EEE3endB8ue170006Ev, symObjAddr: 0x18FC, symBinAddr: 0x1000031DC, symSize: 0x34 }
  - { offsetInCU: 0xA530, offset: 0xA530, size: 0x8, addend: 0x0, symName: __ZNSt3__115__list_iteratorI5PointPvEppB8ue170006Ev, symObjAddr: 0x1960, symBinAddr: 0x100003240, symSize: 0x20 }
  - { offsetInCU: 0xA554, offset: 0xA554, size: 0x8, addend: 0x0, symName: __ZNSt3__14listI5PointNS_9allocatorIS1_EEEC2B8ue170006Ev, symObjAddr: 0x1980, symBinAddr: 0x100003260, symSize: 0x2C }
  - { offsetInCU: 0xA57D, offset: 0xA57D, size: 0x8, addend: 0x0, symName: __ZNSt3__110__list_impI5PointNS_9allocatorIS1_EEEC2Ev, symObjAddr: 0x19AC, symBinAddr: 0x10000328C, symSize: 0x50 }
  - { offsetInCU: 0xA5A7, offset: 0xA5A7, size: 0x8, addend: 0x0, symName: __ZNSt3__116__list_node_baseI5PointPvEC1B8ue170006Ev, symObjAddr: 0x19FC, symBinAddr: 0x1000032DC, symSize: 0x2C }
  - { offsetInCU: 0xA5D4, offset: 0xA5D4, size: 0x8, addend: 0x0, symName: __ZNSt3__117__compressed_pairImNS_9allocatorINS_11__list_nodeI5PointPvEEEEEC1B8ue170006IiNS_18__default_init_tagEEEOT_OT0_, symObjAddr: 0x1A28, symBinAddr: 0x100003308, symSize: 0x3C }
  - { offsetInCU: 0xA62A, offset: 0xA62A, size: 0x8, addend: 0x0, symName: __ZNSt3__116__list_node_baseI5PointPvEC2B8ue170006Ev, symObjAddr: 0x1A64, symBinAddr: 0x100003344, symSize: 0x4C }
  - { offsetInCU: 0xA652, offset: 0xA652, size: 0x8, addend: 0x0, symName: __ZNSt3__117__compressed_pairImNS_9allocatorINS_11__list_nodeI5PointPvEEEEEC2B8ue170006IiNS_18__default_init_tagEEEOT_OT0_, symObjAddr: 0x1AB0, symBinAddr: 0x100003390, symSize: 0x40 }
  - { offsetInCU: 0xA6A9, offset: 0xA6A9, size: 0x8, addend: 0x0, symName: __ZNSt3__122__compressed_pair_elemImLi0ELb0EEC2B8ue170006IivEEOT_, symObjAddr: 0x1AF0, symBinAddr: 0x1000033D0, symSize: 0x24 }
  - { offsetInCU: 0xA6E9, offset: 0xA6E9, size: 0x8, addend: 0x0, symName: __ZNSt3__122__compressed_pair_elemINS_9allocatorINS_11__list_nodeI5PointPvEEEELi1ELb1EEC2B8ue170006ENS_18__default_init_tagE, symObjAddr: 0x1B14, symBinAddr: 0x1000033F4, symSize: 0x2C }
  - { offsetInCU: 0xA71C, offset: 0xA71C, size: 0x8, addend: 0x0, symName: __ZNSt3__19allocatorINS_11__list_nodeI5PointPvEEEC2B8ue170006Ev, symObjAddr: 0x1B40, symBinAddr: 0x100003420, symSize: 0x2C }
  - { offsetInCU: 0xA745, offset: 0xA745, size: 0x8, addend: 0x0, symName: __ZNSt3__116__non_trivial_ifILb1ENS_9allocatorINS_11__list_nodeI5PointPvEEEEEC2B8ue170006Ev, symObjAddr: 0x1B6C, symBinAddr: 0x10000344C, symSize: 0x14 }
  - { offsetInCU: 0xA76E, offset: 0xA76E, size: 0x8, addend: 0x0, symName: __ZNSt3__14listI5PointNS_9allocatorIS1_EEE15__allocate_nodeB8ue170006ERNS2_INS_11__list_nodeIS1_PvEEEE, symObjAddr: 0x1B80, symBinAddr: 0x100003460, symSize: 0x70 }
  - { offsetInCU: 0xA7B6, offset: 0xA7B6, size: 0x8, addend: 0x0, symName: __ZNSt3__116allocator_traitsINS_9allocatorINS_11__list_nodeI5PointPvEEEEE9constructB8ue170006IS3_JS3_EvEEvRS6_PT_DpOT0_, symObjAddr: 0x1BF0, symBinAddr: 0x1000034D0, symSize: 0x34 }
  - { offsetInCU: 0xA80D, offset: 0xA80D, size: 0x8, addend: 0x0, symName: __ZNKSt3__110unique_ptrINS_11__list_nodeI5PointPvEENS_22__allocator_destructorINS_9allocatorIS4_EEEEEptB8ue170006Ev, symObjAddr: 0x1C24, symBinAddr: 0x100003504, symSize: 0x28 }
  - { offsetInCU: 0xA832, offset: 0xA832, size: 0x8, addend: 0x0, symName: __ZNSt3__14listI5PointNS_9allocatorIS1_EEE20__link_nodes_at_backEPNS_16__list_node_baseIS1_PvEES8_, symObjAddr: 0x1C4C, symBinAddr: 0x10000352C, symSize: 0x60 }
  - { offsetInCU: 0xA877, offset: 0xA877, size: 0x8, addend: 0x0, symName: __ZNKSt3__110unique_ptrINS_11__list_nodeI5PointPvEENS_22__allocator_destructorINS_9allocatorIS4_EEEEE3getB8ue170006Ev, symObjAddr: 0x1CAC, symBinAddr: 0x10000358C, symSize: 0x28 }
  - { offsetInCU: 0xA89C, offset: 0xA89C, size: 0x8, addend: 0x0, symName: __ZNSt3__111__list_nodeI5PointPvE9__as_linkB8ue170006Ev, symObjAddr: 0x1CD4, symBinAddr: 0x1000035B4, symSize: 0x24 }
  - { offsetInCU: 0xA8C1, offset: 0xA8C1, size: 0x8, addend: 0x0, symName: __ZNSt3__110unique_ptrINS_11__list_nodeI5PointPvEENS_22__allocator_destructorINS_9allocatorIS4_EEEEE7releaseB8ue170006Ev, symObjAddr: 0x1CF8, symBinAddr: 0x1000035D8, symSize: 0x44 }
  - { offsetInCU: 0xA8F4, offset: 0xA8F4, size: 0x8, addend: 0x0, symName: __ZNSt3__110unique_ptrINS_11__list_nodeI5PointPvEENS_22__allocator_destructorINS_9allocatorIS4_EEEEED1B8ue170006Ev, symObjAddr: 0x1D3C, symBinAddr: 0x10000361C, symSize: 0x2C }
  - { offsetInCU: 0xA91D, offset: 0xA91D, size: 0x8, addend: 0x0, symName: __ZNSt3__116allocator_traitsINS_9allocatorINS_11__list_nodeI5PointPvEEEEE8allocateB8ue170006ERS6_m, symObjAddr: 0x1D68, symBinAddr: 0x100003648, symSize: 0x2C }
  - { offsetInCU: 0xA94F, offset: 0xA94F, size: 0x8, addend: 0x0, symName: __ZNSt3__122__allocator_destructorINS_9allocatorINS_11__list_nodeI5PointPvEEEEEC1B8ue170006ERS6_m, symObjAddr: 0x1D94, symBinAddr: 0x100003674, symSize: 0x3C }
  - { offsetInCU: 0xA998, offset: 0xA998, size: 0x8, addend: 0x0, symName: __ZNSt3__110unique_ptrINS_11__list_nodeI5PointPvEENS_22__allocator_destructorINS_9allocatorIS4_EEEEEC1B8ue170006ILb1EvEEPS4_NS_16__dependent_typeINS_27__unique_ptr_deleter_sfinaeIS8_EEXT_EE20__good_rval_ref_typeE, symObjAddr: 0x1DD0, symBinAddr: 0x1000036B0, symSize: 0x3C }
  - { offsetInCU: 0xA9E8, offset: 0xA9E8, size: 0x8, addend: 0x0, symName: __ZNSt3__19allocatorINS_11__list_nodeI5PointPvEEE8allocateB8ue170006Em, symObjAddr: 0x1E0C, symBinAddr: 0x1000036EC, symSize: 0x58 }
  - { offsetInCU: 0xAA25, offset: 0xAA25, size: 0x8, addend: 0x0, symName: __ZNSt3__116allocator_traitsINS_9allocatorINS_11__list_nodeI5PointPvEEEEE8max_sizeB8ue170006IS6_vEEmRKS6_, symObjAddr: 0x1E64, symBinAddr: 0x100003744, symSize: 0x24 }
  - { offsetInCU: 0xAA53, offset: 0xAA53, size: 0x8, addend: 0x0, symName: __ZNKSt3__19allocatorINS_11__list_nodeI5PointPvEEE8max_sizeB8ue170006Ev, symObjAddr: 0x1EE4, symBinAddr: 0x1000037C4, symSize: 0x14 }
  - { offsetInCU: 0xAA78, offset: 0xAA78, size: 0x8, addend: 0x0, symName: __ZNSt3__122__allocator_destructorINS_9allocatorINS_11__list_nodeI5PointPvEEEEEC2B8ue170006ERS6_m, symObjAddr: 0x1F1C, symBinAddr: 0x1000037FC, symSize: 0x2C }
  - { offsetInCU: 0xAABC, offset: 0xAABC, size: 0x8, addend: 0x0, symName: __ZNSt3__110unique_ptrINS_11__list_nodeI5PointPvEENS_22__allocator_destructorINS_9allocatorIS4_EEEEEC2B8ue170006ILb1EvEEPS4_NS_16__dependent_typeINS_27__unique_ptr_deleter_sfinaeIS8_EEXT_EE20__good_rval_ref_typeE, symObjAddr: 0x1F48, symBinAddr: 0x100003828, symSize: 0x48 }
  - { offsetInCU: 0xAB0B, offset: 0xAB0B, size: 0x8, addend: 0x0, symName: __ZNSt3__117__compressed_pairIPNS_11__list_nodeI5PointPvEENS_22__allocator_destructorINS_9allocatorIS4_EEEEEC1B8ue170006IRS5_S9_EEOT_OT0_, symObjAddr: 0x1F90, symBinAddr: 0x100003870, symSize: 0x3C }
  - { offsetInCU: 0xAB61, offset: 0xAB61, size: 0x8, addend: 0x0, symName: __ZNSt3__117__compressed_pairIPNS_11__list_nodeI5PointPvEENS_22__allocator_destructorINS_9allocatorIS4_EEEEEC2B8ue170006IRS5_S9_EEOT_OT0_, symObjAddr: 0x1FCC, symBinAddr: 0x1000038AC, symSize: 0x48 }
  - { offsetInCU: 0xABB8, offset: 0xABB8, size: 0x8, addend: 0x0, symName: __ZNSt3__122__compressed_pair_elemIPNS_11__list_nodeI5PointPvEELi0ELb0EEC2B8ue170006IRS5_vEEOT_, symObjAddr: 0x2014, symBinAddr: 0x1000038F4, symSize: 0x24 }
  - { offsetInCU: 0xABF9, offset: 0xABF9, size: 0x8, addend: 0x0, symName: __ZNSt3__122__compressed_pair_elemINS_22__allocator_destructorINS_9allocatorINS_11__list_nodeI5PointPvEEEEEELi1ELb0EEC2B8ue170006IS8_vEEOT_, symObjAddr: 0x2038, symBinAddr: 0x100003918, symSize: 0x24 }
  - { offsetInCU: 0xAC3A, offset: 0xAC3A, size: 0x8, addend: 0x0, symName: __ZNSt3__19allocatorINS_11__list_nodeI5PointPvEEE9constructB8ue170006IS2_JS2_EEEvPT_DpOT0_, symObjAddr: 0x205C, symBinAddr: 0x10000393C, symSize: 0x28 }
  - { offsetInCU: 0xAC8F, offset: 0xAC8F, size: 0x8, addend: 0x0, symName: __ZNKSt3__117__compressed_pairIPNS_11__list_nodeI5PointPvEENS_22__allocator_destructorINS_9allocatorIS4_EEEEE5firstB8ue170006Ev, symObjAddr: 0x2084, symBinAddr: 0x100003964, symSize: 0x24 }
  - { offsetInCU: 0xACB4, offset: 0xACB4, size: 0x8, addend: 0x0, symName: __ZNKSt3__122__compressed_pair_elemIPNS_11__list_nodeI5PointPvEELi0ELb0EE5__getB8ue170006Ev, symObjAddr: 0x20A8, symBinAddr: 0x100003988, symSize: 0x14 }
  - { offsetInCU: 0xACD9, offset: 0xACD9, size: 0x8, addend: 0x0, symName: __ZNSt3__117__compressed_pairIPNS_11__list_nodeI5PointPvEENS_22__allocator_destructorINS_9allocatorIS4_EEEEE5firstB8ue170006Ev, symObjAddr: 0x20BC, symBinAddr: 0x10000399C, symSize: 0x24 }
  - { offsetInCU: 0xACFE, offset: 0xACFE, size: 0x8, addend: 0x0, symName: __ZNSt3__122__compressed_pair_elemIPNS_11__list_nodeI5PointPvEELi0ELb0EE5__getB8ue170006Ev, symObjAddr: 0x20E0, symBinAddr: 0x1000039C0, symSize: 0x14 }
  - { offsetInCU: 0xAD22, offset: 0xAD22, size: 0x8, addend: 0x0, symName: __ZNSt3__110unique_ptrINS_11__list_nodeI5PointPvEENS_22__allocator_destructorINS_9allocatorIS4_EEEEED2B8ue170006Ev, symObjAddr: 0x20F4, symBinAddr: 0x1000039D4, symSize: 0x30 }
  - { offsetInCU: 0xAD4B, offset: 0xAD4B, size: 0x8, addend: 0x0, symName: __ZNSt3__110unique_ptrINS_11__list_nodeI5PointPvEENS_22__allocator_destructorINS_9allocatorIS4_EEEEE5resetB8ue170006EPS4_, symObjAddr: 0x2124, symBinAddr: 0x100003A04, symSize: 0x78 }
  - { offsetInCU: 0xAD8E, offset: 0xAD8E, size: 0x8, addend: 0x0, symName: __ZNSt3__117__compressed_pairIPNS_11__list_nodeI5PointPvEENS_22__allocator_destructorINS_9allocatorIS4_EEEEE6secondB8ue170006Ev, symObjAddr: 0x219C, symBinAddr: 0x100003A7C, symSize: 0x28 }
  - { offsetInCU: 0xADB3, offset: 0xADB3, size: 0x8, addend: 0x0, symName: __ZNSt3__122__allocator_destructorINS_9allocatorINS_11__list_nodeI5PointPvEEEEEclB8ue170006EPS5_, symObjAddr: 0x21C4, symBinAddr: 0x100003AA4, symSize: 0x34 }
  - { offsetInCU: 0xADE6, offset: 0xADE6, size: 0x8, addend: 0x0, symName: __ZNSt3__122__compressed_pair_elemINS_22__allocator_destructorINS_9allocatorINS_11__list_nodeI5PointPvEEEEEELi1ELb0EE5__getB8ue170006Ev, symObjAddr: 0x21F8, symBinAddr: 0x100003AD8, symSize: 0x14 }
  - { offsetInCU: 0xAE0B, offset: 0xAE0B, size: 0x8, addend: 0x0, symName: __ZN5PointmIEd, symObjAddr: 0x220C, symBinAddr: 0x100003AEC, symSize: 0x28 }
...
